; Function Attrs: mustprogress uwtable
define void @_ZN5faiss20IndexScalarQuantizerC2EiNS_15ScalarQuantizer13QuantizerTypeENS_10MetricTypeE(ptr noundef nonnull align 8 dereferenceable(144) %0, i32 noundef %1, i32 noundef %2, i32 noundef %3) unnamed_addr #1 align 2 personality ptr @__gxx_personality_v0 {
  %5 = sext i32 %1 to i64
  tail call void @_ZN5faiss14IndexFlatCodesC2EmlNS_10MetricTypeE(ptr noundef nonnull align 8 dereferenceable(72) %0, i64 noundef 0, i64 noundef %5, i32 noundef %3)
  store ptr getelementptr inbounds ({ [25 x ptr] }, ptr @_ZTVN5faiss20IndexScalarQuantizerE, i64 0, i32 0, i64 2), ptr %0, align 8
  %6 = getelementptr inbounds i8, ptr %0, i64 72
  invoke void @_ZN5faiss15ScalarQuantizerC1EmNS0_13QuantizerTypeE(ptr noundef nonnull align 8 dereferenceable(72) %6, i64 noundef %5, i32 noundef %2)
          to label %7 unwind label %15

7:                                                ; preds = %4
  %8 = and i32 %2, -2
  %9 = icmp eq i32 %8, 4
  %10 = getelementptr inbounds i8, ptr %0, i64 25
  %11 = zext i1 %9 to i8
  store i8 %11, ptr %10, align 1
  %12 = getelementptr inbounds i8, ptr %0, i64 88
  %13 = load i64, ptr %12, align 8
  %14 = getelementptr inbounds i8, ptr %0, i64 40
  store i64 %13, ptr %14, align 8
  ret void

15:                                               ; preds = %4
  %16 = landingpad { ptr, i32 }
          cleanup
  tail call void @_ZN5faiss14IndexFlatCodesD2Ev(ptr noundef nonnull align 8 dereferenceable(72) %0) #10
  resume { ptr, i32 } %16
}